; ModuleID = '14/907.c'
source_filename = "14/907.c"
target datalayout = "e-m:e-p270:32:32-p271:32:32-p272:64:64-i64:64-f80:128-n8:16:32:64-S128"
target triple = "x86_64-pc-linux-gnu"

%struct.student = type { i32, i32, i32, i32 }

@.str = private unnamed_addr constant [3 x i8] c"%d\00", align 1
@.str.1 = private unnamed_addr constant [9 x i8] c"%d %d %d\00", align 1
@.str.2 = private unnamed_addr constant [19 x i8] c"%d %d\0A%d %d\0A%d %d\0A\00", align 1

; Function Attrs: noinline nounwind uwtable
define dso_local i32 @main() #0 {
  %1 = alloca i32, align 4
  %2 = alloca i32, align 4
  %3 = alloca i32, align 4
  %4 = alloca i32, align 4
  %5 = alloca i32, align 4
  %6 = alloca %struct.student*, align 8
  store i32 0, i32* %1, align 4
  %7 = call i32 (i8*, ...) @__isoc99_scanf(i8* getelementptr inbounds ([3 x i8], [3 x i8]* @.str, i64 0, i64 0), i32* %2)
  %8 = load i32, i32* %2, align 4
  %9 = sext i32 %8 to i64
  %10 = mul i64 16, %9
  %11 = call noalias i8* @malloc(i64 %10) #3
  %12 = bitcast i8* %11 to %struct.student*
  store %struct.student* %12, %struct.student** %6, align 8
  store i32 0, i32* %3, align 4
  br label %13

13:                                               ; preds = %52, %0
  %14 = load i32, i32* %3, align 4
  %15 = load i32, i32* %2, align 4
  %16 = icmp slt i32 %14, %15
  br i1 %16, label %17, label %55

17:                                               ; preds = %13
  %18 = load %struct.student*, %struct.student** %6, align 8
  %19 = load i32, i32* %3, align 4
  %20 = sext i32 %19 to i64
  %21 = getelementptr inbounds %struct.student, %struct.student* %18, i64 %20
  %22 = getelementptr inbounds %struct.student, %struct.student* %21, i32 0, i32 0
  %23 = load %struct.student*, %struct.student** %6, align 8
  %24 = load i32, i32* %3, align 4
  %25 = sext i32 %24 to i64
  %26 = getelementptr inbounds %struct.student, %struct.student* %23, i64 %25
  %27 = getelementptr inbounds %struct.student, %struct.student* %26, i32 0, i32 1
  %28 = load %struct.student*, %struct.student** %6, align 8
  %29 = load i32, i32* %3, align 4
  %30 = sext i32 %29 to i64
  %31 = getelementptr inbounds %struct.student, %struct.student* %28, i64 %30
  %32 = getelementptr inbounds %struct.student, %struct.student* %31, i32 0, i32 2
  %33 = call i32 (i8*, ...) @__isoc99_scanf(i8* getelementptr inbounds ([9 x i8], [9 x i8]* @.str.1, i64 0, i64 0), i32* %22, i32* %27, i32* %32)
  %34 = load %struct.student*, %struct.student** %6, align 8
  %35 = load i32, i32* %3, align 4
  %36 = sext i32 %35 to i64
  %37 = getelementptr inbounds %struct.student, %struct.student* %34, i64 %36
  %38 = getelementptr inbounds %struct.student, %struct.student* %37, i32 0, i32 1
  %39 = load i32, i32* %38, align 4
  %40 = load %struct.student*, %struct.student** %6, align 8
  %41 = load i32, i32* %3, align 4
  %42 = sext i32 %41 to i64
  %43 = getelementptr inbounds %struct.student, %struct.student* %40, i64 %42
  %44 = getelementptr inbounds %struct.student, %struct.student* %43, i32 0, i32 2
  %45 = load i32, i32* %44, align 4
  %46 = add nsw i32 %39, %45
  %47 = load %struct.student*, %struct.student** %6, align 8
  %48 = load i32, i32* %3, align 4
  %49 = sext i32 %48 to i64
  %50 = getelementptr inbounds %struct.student, %struct.student* %47, i64 %49
  %51 = getelementptr inbounds %struct.student, %struct.student* %50, i32 0, i32 3
  store i32 %46, i32* %51, align 4
  br label %52

52:                                               ; preds = %17
  %53 = load i32, i32* %3, align 4
  %54 = add nsw i32 %53, 1
  store i32 %54, i32* %3, align 4
  br label %13

55:                                               ; preds = %13
  store i32 1, i32* %3, align 4
  br label %56

56:                                               ; preds = %137, %55
  %57 = load i32, i32* %3, align 4
  %58 = icmp slt i32 %57, 4
  br i1 %58, label %59, label %140

59:                                               ; preds = %56
  store i32 0, i32* %4, align 4
  br label %60

60:                                               ; preds = %133, %59
  %61 = load i32, i32* %4, align 4
  %62 = load i32, i32* %2, align 4
  %63 = load i32, i32* %3, align 4
  %64 = sub nsw i32 %62, %63
  %65 = icmp slt i32 %61, %64
  br i1 %65, label %66, label %136

66:                                               ; preds = %60
  %67 = load %struct.student*, %struct.student** %6, align 8
  %68 = load i32, i32* %4, align 4
  %69 = sext i32 %68 to i64
  %70 = getelementptr inbounds %struct.student, %struct.student* %67, i64 %69
  %71 = getelementptr inbounds %struct.student, %struct.student* %70, i32 0, i32 3
  %72 = load i32, i32* %71, align 4
  %73 = load %struct.student*, %struct.student** %6, align 8
  %74 = load i32, i32* %4, align 4
  %75 = add nsw i32 %74, 1
  %76 = sext i32 %75 to i64
  %77 = getelementptr inbounds %struct.student, %struct.student* %73, i64 %76
  %78 = getelementptr inbounds %struct.student, %struct.student* %77, i32 0, i32 3
  %79 = load i32, i32* %78, align 4
  %80 = icmp sge i32 %72, %79
  br i1 %80, label %81, label %132

81:                                               ; preds = %66
  %82 = load %struct.student*, %struct.student** %6, align 8
  %83 = load i32, i32* %4, align 4
  %84 = sext i32 %83 to i64
  %85 = getelementptr inbounds %struct.student, %struct.student* %82, i64 %84
  %86 = getelementptr inbounds %struct.student, %struct.student* %85, i32 0, i32 3
  %87 = load i32, i32* %86, align 4
  store i32 %87, i32* %5, align 4
  %88 = load %struct.student*, %struct.student** %6, align 8
  %89 = load i32, i32* %4, align 4
  %90 = add nsw i32 %89, 1
  %91 = sext i32 %90 to i64
  %92 = getelementptr inbounds %struct.student, %struct.student* %88, i64 %91
  %93 = getelementptr inbounds %struct.student, %struct.student* %92, i32 0, i32 3
  %94 = load i32, i32* %93, align 4
  %95 = load %struct.student*, %struct.student** %6, align 8
  %96 = load i32, i32* %4, align 4
  %97 = sext i32 %96 to i64
  %98 = getelementptr inbounds %struct.student, %struct.student* %95, i64 %97
  %99 = getelementptr inbounds %struct.student, %struct.student* %98, i32 0, i32 3
  store i32 %94, i32* %99, align 4
  %100 = load i32, i32* %5, align 4
  %101 = load %struct.student*, %struct.student** %6, align 8
  %102 = load i32, i32* %4, align 4
  %103 = add nsw i32 %102, 1
  %104 = sext i32 %103 to i64
  %105 = getelementptr inbounds %struct.student, %struct.student* %101, i64 %104
  %106 = getelementptr inbounds %struct.student, %struct.student* %105, i32 0, i32 3
  store i32 %100, i32* %106, align 4
  %107 = load %struct.student*, %struct.student** %6, align 8
  %108 = load i32, i32* %4, align 4
  %109 = sext i32 %108 to i64
  %110 = getelementptr inbounds %struct.student, %struct.student* %107, i64 %109
  %111 = getelementptr inbounds %struct.student, %struct.student* %110, i32 0, i32 0
  %112 = load i32, i32* %111, align 4
  store i32 %112, i32* %5, align 4
  %113 = load %struct.student*, %struct.student** %6, align 8
  %114 = load i32, i32* %4, align 4
  %115 = add nsw i32 %114, 1
  %116 = sext i32 %115 to i64
  %117 = getelementptr inbounds %struct.student, %struct.student* %113, i64 %116
  %118 = getelementptr inbounds %struct.student, %struct.student* %117, i32 0, i32 0
  %119 = load i32, i32* %118, align 4
  %120 = load %struct.student*, %struct.student** %6, align 8
  %121 = load i32, i32* %4, align 4
  %122 = sext i32 %121 to i64
  %123 = getelementptr inbounds %struct.student, %struct.student* %120, i64 %122
  %124 = getelementptr inbounds %struct.student, %struct.student* %123, i32 0, i32 0
  store i32 %119, i32* %124, align 4
  %125 = load i32, i32* %5, align 4
  %126 = load %struct.student*, %struct.student** %6, align 8
  %127 = load i32, i32* %4, align 4
  %128 = add nsw i32 %127, 1
  %129 = sext i32 %128 to i64
  %130 = getelementptr inbounds %struct.student, %struct.student* %126, i64 %129
  %131 = getelementptr inbounds %struct.student, %struct.student* %130, i32 0, i32 0
  store i32 %125, i32* %131, align 4
  br label %132

132:                                              ; preds = %81, %66
  br label %133

133:                                              ; preds = %132
  %134 = load i32, i32* %4, align 4
  %135 = add nsw i32 %134, 1
  store i32 %135, i32* %4, align 4
  br label %60

136:                                              ; preds = %60
  br label %137

137:                                              ; preds = %136
  %138 = load i32, i32* %3, align 4
  %139 = add nsw i32 %138, 1
  store i32 %139, i32* %3, align 4
  br label %56

140:                                              ; preds = %56
  %141 = load %struct.student*, %struct.student** %6, align 8
  %142 = load i32, i32* %2, align 4
  %143 = sub nsw i32 %142, 1
  %144 = sext i32 %143 to i64
  %145 = getelementptr inbounds %struct.student, %struct.student* %141, i64 %144
  %146 = getelementptr inbounds %struct.student, %struct.student* %145, i32 0, i32 0
  %147 = load i32, i32* %146, align 4
  %148 = load %struct.student*, %struct.student** %6, align 8
  %149 = load i32, i32* %2, align 4
  %150 = sub nsw i32 %149, 1
  %151 = sext i32 %150 to i64
  %152 = getelementptr inbounds %struct.student, %struct.student* %148, i64 %151
  %153 = getelementptr inbounds %struct.student, %struct.student* %152, i32 0, i32 3
  %154 = load i32, i32* %153, align 4
  %155 = load %struct.student*, %struct.student** %6, align 8
  %156 = load i32, i32* %2, align 4
  %157 = sub nsw i32 %156, 2
  %158 = sext i32 %157 to i64
  %159 = getelementptr inbounds %struct.student, %struct.student* %155, i64 %158
  %160 = getelementptr inbounds %struct.student, %struct.student* %159, i32 0, i32 0
  %161 = load i32, i32* %160, align 4
  %162 = load %struct.student*, %struct.student** %6, align 8
  %163 = load i32, i32* %2, align 4
  %164 = sub nsw i32 %163, 2
  %165 = sext i32 %164 to i64
  %166 = getelementptr inbounds %struct.student, %struct.student* %162, i64 %165
  %167 = getelementptr inbounds %struct.student, %struct.student* %166, i32 0, i32 3
  %168 = load i32, i32* %167, align 4
  %169 = load %struct.student*, %struct.student** %6, align 8
  %170 = load i32, i32* %2, align 4
  %171 = sub nsw i32 %170, 3
  %172 = sext i32 %171 to i64
  %173 = getelementptr inbounds %struct.student, %struct.student* %169, i64 %172
  %174 = getelementptr inbounds %struct.student, %struct.student* %173, i32 0, i32 0
  %175 = load i32, i32* %174, align 4
  %176 = load %struct.student*, %struct.student** %6, align 8
  %177 = load i32, i32* %2, align 4
  %178 = sub nsw i32 %177, 3
  %179 = sext i32 %178 to i64
  %180 = getelementptr inbounds %struct.student, %struct.student* %176, i64 %179
  %181 = getelementptr inbounds %struct.student, %struct.student* %180, i32 0, i32 3
  %182 = load i32, i32* %181, align 4
  %183 = call i32 (i8*, ...) @printf(i8* getelementptr inbounds ([19 x i8], [19 x i8]* @.str.2, i64 0, i64 0), i32 %147, i32 %154, i32 %161, i32 %168, i32 %175, i32 %182)
  ret i32 0
}

declare dso_local i32 @__isoc99_scanf(i8*, ...) #1

; Function Attrs: nounwind
declare dso_local noalias i8* @malloc(i64) #2

declare dso_local i32 @printf(i8*, ...) #1


!llvm.module.flags = !{!0}
!llvm.ident = !{!1}

!0 = !{i32 1, !"wchar_size", i32 4}
!1 = !{!"clang version 10.0.0-4ubuntu1 "}
